target datalayout = "e-m:e-p270:32:32-p271:32:32-p272:64:64-i64:64-i128:128-f80:128-n8:16:32:64-S128"
target triple = "x86_64-pc-linux-gnu"

%struct.hwloc_topology = type { i32, i32, i32, ptr, ptr, i64, [20 x i32], [20 x i32], i64, i64, i32, ptr, i64, ptr, i64, [6 x %struct.hwloc_special_level_s], ptr, ptr, %struct.hwloc_binding_hooks, %struct.hwloc_topology_support, %struct.hwloc_infos_s, ptr, ptr, i32, ptr, ptr, i32, i32, ptr, i32, i32, ptr, i32, i32, i32, [5 x float], i32, ptr, ptr, i32, i32, ptr, i32, %struct.hwloc_numanode_attr_s, i32, i32, ptr, i64, i32, ptr, ptr, ptr }
%struct.hwloc_special_level_s = type { i32, ptr, ptr, ptr }
%struct.hwloc_binding_hooks = type { ptr, ptr, ptr, ptr, ptr, ptr, ptr, ptr, ptr, ptr, ptr, ptr, ptr, ptr, ptr, ptr, ptr, ptr, ptr, ptr, ptr, ptr, ptr, ptr }
%struct.hwloc_topology_support = type { ptr, ptr, ptr, ptr }
%struct.hwloc_infos_s = type { ptr, i32, i32 }
%struct.hwloc_numanode_attr_s = type { i64, i32, ptr }

; Function Attrs: nounwind uwtable
define i32 @hwloc_topology_get_type_filter(ptr noundef %0, i32 noundef %1, ptr noundef %2) #0 {
  %4 = alloca i32, align 4
  %5 = alloca ptr, align 8
  %6 = alloca i32, align 4
  %7 = alloca ptr, align 8
  store ptr %0, ptr %5, align 8, !tbaa !3
  store i32 %1, ptr %6, align 4, !tbaa !33
  store ptr %2, ptr %7, align 8, !tbaa !167
  %8 = load i32, ptr %6, align 4, !tbaa !33
  %9 = icmp uge i32 %8, 20
  br i1 %9, label %10, label %12

10:                                               ; preds = %3
  %11 = call ptr @__errno_location() #16
  store i32 22, ptr %11, align 4, !tbaa !33
  store i32 -1, ptr %4, align 4
  br label %20

12:                                               ; preds = %3
  %13 = load ptr, ptr %5, align 8, !tbaa !3
  %14 = getelementptr inbounds nuw %struct.hwloc_topology, ptr %13, i32 0, i32 7
  %15 = load i32, ptr %6, align 4, !tbaa !33
  %16 = zext i32 %15 to i64
  %17 = getelementptr inbounds nuw [20 x i32], ptr %14, i64 0, i64 %16
  %18 = load i32, ptr %17, align 4, !tbaa !33
  %19 = load ptr, ptr %7, align 8, !tbaa !167
  store i32 %18, ptr %19, align 4, !tbaa !33
  store i32 0, ptr %4, align 4
  br label %20

20:                                               ; preds = %12, %10
  %21 = load i32, ptr %4, align 4
  ret i32 %21
}