; Function Attrs: mustprogress nofree nosync nounwind willreturn memory(write, argmem: readwrite, inaccessiblemem: none) uwtable
define range(i32 -1, 1) i32 @hwloc_topology_get_type_filter(ptr noundef readonly captures(none) %0, i32 noundef %1, ptr noundef writeonly captures(none) %2) local_unnamed_addr #19 {
  %4 = icmp ugt i32 %1, 19
  br i1 %4, label %5, label %7

5:                                                ; preds = %3
  %6 = tail call ptr @__errno_location() #37
  store i32 22, ptr %6, align 4, !tbaa !31
  br label %12

7:                                                ; preds = %3
  %8 = getelementptr inbounds nuw i8, ptr %0, i64 120
  %9 = zext nneg i32 %1 to i64
  %10 = getelementptr inbounds nuw [20 x i32], ptr %8, i64 0, i64 %9
  %11 = load i32, ptr %10, align 4, !tbaa !31
  store i32 %11, ptr %2, align 4, !tbaa !31
  br label %12

12:                                               ; preds = %7, %5
  %.0 = phi i32 [ -1, %5 ], [ 0, %7 ]
  ret i32 %.0
}